target datalayout = "e-m:e-p270:32:32-p271:32:32-p272:64:64-i64:64-i128:128-f80:128-n8:16:32:64-S128"
target triple = "x86_64-pc-linux-gnu"

%"class.vas::ot::Tracker::InitParameters" = type { i32, i32, i32, i32, i8, float }

@.str = private unnamed_addr constant [26 x i8] c"Unsupported tracking type\00", align 1
@_ZTISt13runtime_error = external constant ptr

; Function Attrs: mustprogress uwtable
define hidden noundef ptr @_ZN3vas2ot7Tracker14CreateInstanceENS1_14InitParametersE(ptr noundef byval(%"class.vas::ot::Tracker::InitParameters") align 8 %0) #0 align 2 personality ptr @__gxx_personality_v0 {
  %2 = alloca ptr, align 8
  %3 = alloca %"class.vas::ot::Tracker::InitParameters", align 8
  %4 = alloca ptr, align 8
  %5 = alloca i32, align 4
  %6 = alloca %"class.vas::ot::Tracker::InitParameters", align 8
  store ptr null, ptr %2, align 8
  %7 = getelementptr inbounds %"class.vas::ot::Tracker::InitParameters", ptr %0, i32 0, i32 0
  %8 = load i32, ptr %7, align 8
  %9 = icmp eq i32 %8, 3
  br i1 %9, label %10, label %17

10:                                               ; preds = %1
  %11 = call noalias noundef nonnull ptr @_Znwm(i64 noundef 80) #12
  call void @llvm.memcpy.p0.p0.i64(ptr align 4 %3, ptr align 8 %0, i64 24, i1 false)
  invoke void @_ZN3vas2ot25ShortTermImagelessTrackerC1ENS0_7Tracker14InitParametersE(ptr noundef nonnull align 8 dereferenceable(80) %11, ptr noundef byval(%"class.vas::ot::Tracker::InitParameters") align 8 %3)
          to label %12 unwind label %13

12:                                               ; preds = %10
  store ptr %11, ptr %2, align 8
  br label %36

13:                                               ; preds = %10
  %14 = landingpad { ptr, i32 }
          cleanup
  %15 = extractvalue { ptr, i32 } %14, 0
  store ptr %15, ptr %4, align 8
  %16 = extractvalue { ptr, i32 } %14, 1
  store i32 %16, ptr %5, align 4
  call void @_ZdlPv(ptr noundef %11) #13
  br label %38

17:                                               ; preds = %1
  %18 = getelementptr inbounds %"class.vas::ot::Tracker::InitParameters", ptr %0, i32 0, i32 0
  %19 = load i32, ptr %18, align 8
  %20 = icmp eq i32 %19, 5
  br i1 %20, label %21, label %28

21:                                               ; preds = %17
  %22 = call noalias noundef nonnull ptr @_Znwm(i64 noundef 72) #12
  call void @llvm.memcpy.p0.p0.i64(ptr align 4 %6, ptr align 8 %0, i64 24, i1 false)
  invoke void @_ZN3vas2ot24ZeroTermImagelessTrackerC1ENS0_7Tracker14InitParametersE(ptr noundef nonnull align 8 dereferenceable(72) %22, ptr noundef byval(%"class.vas::ot::Tracker::InitParameters") align 8 %6)
          to label %23 unwind label %24

23:                                               ; preds = %21
  store ptr %22, ptr %2, align 8
  br label %35

24:                                               ; preds = %21
  %25 = landingpad { ptr, i32 }
          cleanup
  %26 = extractvalue { ptr, i32 } %25, 0
  store ptr %26, ptr %4, align 8
  %27 = extractvalue { ptr, i32 } %25, 1
  store i32 %27, ptr %5, align 4
  call void @_ZdlPv(ptr noundef %22) #13
  br label %38

28:                                               ; preds = %17
  %29 = call ptr @__cxa_allocate_exception(i64 16) #10
  invoke void @_ZNSt13runtime_errorC1EPKc(ptr noundef nonnull align 8 dereferenceable(16) %29, ptr noundef @.str)
          to label %30 unwind label %31

30:                                               ; preds = %28
  call void @__cxa_throw(ptr %29, ptr @_ZTISt13runtime_error, ptr @_ZNSt13runtime_errorD1Ev) #14
  unreachable

31:                                               ; preds = %28
  %32 = landingpad { ptr, i32 }
          cleanup
  %33 = extractvalue { ptr, i32 } %32, 0
  store ptr %33, ptr %4, align 8
  %34 = extractvalue { ptr, i32 } %32, 1
  store i32 %34, ptr %5, align 4
  call void @__cxa_free_exception(ptr %29) #10
  br label %38

35:                                               ; preds = %23
  br label %36

36:                                               ; preds = %35, %12
  %37 = load ptr, ptr %2, align 8
  ret ptr %37

38:                                               ; preds = %31, %24, %13
  %39 = load ptr, ptr %4, align 8
  %40 = load i32, ptr %5, align 4
  %41 = insertvalue { ptr, i32 } poison, ptr %39, 0
  %42 = insertvalue { ptr, i32 } %41, i32 %40, 1
  resume { ptr, i32 } %42
}