; Function Attrs: mustprogress uwtable
define hidden noundef nonnull ptr @_ZN3vas2ot7Tracker14CreateInstanceENS1_14InitParametersE(ptr nocapture noundef readonly byval(%"class.vas::ot::Tracker::InitParameters") align 8 %0) local_unnamed_addr #0 align 2 personality ptr @__gxx_personality_v0 {
  %2 = load i32, ptr %0, align 8
  switch i32 %2, label %11 [
    i32 3, label %3
    i32 5, label %7
  ]

3:                                                ; preds = %1
  %4 = tail call noalias noundef nonnull dereferenceable(80) ptr @_Znwm(i64 noundef 80) #16
  invoke void @_ZN3vas2ot25ShortTermImagelessTrackerC1ENS0_7Tracker14InitParametersE(ptr noundef nonnull align 8 dereferenceable(80) %4, ptr noundef nonnull byval(%"class.vas::ot::Tracker::InitParameters") align 8 %0)
          to label %16 unwind label %5

5:                                                ; preds = %3
  %6 = landingpad { ptr, i32 }
          cleanup
  tail call void @_ZdlPv(ptr noundef nonnull %4) #14
  br label %17

7:                                                ; preds = %1
  %8 = tail call noalias noundef nonnull dereferenceable(72) ptr @_Znwm(i64 noundef 72) #16
  invoke void @_ZN3vas2ot24ZeroTermImagelessTrackerC1ENS0_7Tracker14InitParametersE(ptr noundef nonnull align 8 dereferenceable(72) %8, ptr noundef nonnull byval(%"class.vas::ot::Tracker::InitParameters") align 8 %0)
          to label %16 unwind label %9

9:                                                ; preds = %7
  %10 = landingpad { ptr, i32 }
          cleanup
  tail call void @_ZdlPv(ptr noundef nonnull %8) #14
  br label %17

11:                                               ; preds = %1
  %12 = tail call ptr @__cxa_allocate_exception(i64 16) #13
  invoke void @_ZNSt13runtime_errorC1EPKc(ptr noundef nonnull align 8 dereferenceable(16) %12, ptr noundef nonnull @.str)
          to label %13 unwind label %14

13:                                               ; preds = %11
  tail call void @__cxa_throw(ptr nonnull %12, ptr nonnull @_ZTISt13runtime_error, ptr nonnull @_ZNSt13runtime_errorD1Ev) #17
  unreachable

14:                                               ; preds = %11
  %15 = landingpad { ptr, i32 }
          cleanup
  tail call void @__cxa_free_exception(ptr %12) #13
  br label %17

16:                                               ; preds = %7, %3
  %.03 = phi ptr [ %4, %3 ], [ %8, %7 ]
  ret ptr %.03

17:                                               ; preds = %14, %9, %5
  %.pn = phi { ptr, i32 } [ %6, %5 ], [ %10, %9 ], [ %15, %14 ]
  resume { ptr, i32 } %.pn
}